target datalayout = "e-m:e-p270:32:32-p271:32:32-p272:64:64-i64:64-i128:128-f80:128-n8:16:32:64-S128"
target triple = "x86_64-pc-linux-gnu"

@local_job_str = internal global ptr null, align 8
@.str.144 = private unnamed_addr constant [37 x i8] c"Character %d in %s is invalid job ID\00", align 1

; Function Attrs: nounwind uwtable
define internal zeroext i1 @_is_job_id(ptr noundef %0) #0 {
  %2 = alloca i1, align 1
  %3 = alloca ptr, align 8
  %4 = alloca i8, align 1
  %5 = alloca i8, align 1
  %6 = alloca i32, align 4
  %7 = alloca i32, align 4
  %8 = alloca i32, align 4
  store ptr %0, ptr %3, align 8
  call void @llvm.lifetime.start.p0(i64 1, ptr %4) #8
  store i8 0, ptr %4, align 1
  call void @llvm.lifetime.start.p0(i64 1, ptr %5) #8
  store i8 0, ptr %5, align 1
  call void @llvm.lifetime.start.p0(i64 4, ptr %6) #8
  store i32 0, ptr %6, align 4
  call void @llvm.lifetime.start.p0(i64 4, ptr %7) #8
  %9 = load ptr, ptr %3, align 8
  %10 = icmp ne ptr %9, null
  br i1 %10, label %12, label %11

11:                                               ; preds = %1
  store i1 false, ptr %2, align 1
  store i32 1, ptr %8, align 4
  br label %156

12:                                               ; preds = %1
  %13 = load ptr, ptr %3, align 8
  %14 = call ptr @xstrdup(ptr noundef %13)
  store ptr %14, ptr @local_job_str, align 8
  store i32 0, ptr %7, align 4
  br label %15

15:                                               ; preds = %135, %12
  %16 = load ptr, ptr @local_job_str, align 8
  %17 = load i32, ptr %7, align 4
  %18 = sext i32 %17 to i64
  %19 = getelementptr inbounds i8, ptr %16, i64 %18
  %20 = load i8, ptr %19, align 1
  %21 = icmp ne i8 %20, 0
  br i1 %21, label %22, label %138

22:                                               ; preds = %15
  %23 = load ptr, ptr @local_job_str, align 8
  %24 = load i32, ptr %7, align 4
  %25 = sext i32 %24 to i64
  %26 = getelementptr inbounds i8, ptr %23, i64 %25
  %27 = load i8, ptr %26, align 1
  %28 = sext i8 %27 to i32
  %29 = icmp eq i32 %28, 43
  br i1 %29, label %30, label %35

30:                                               ; preds = %22
  %31 = load i8, ptr %4, align 1, !range !14, !noundef !15
  %32 = trunc i8 %31 to i1
  br i1 %32, label %33, label %34

33:                                               ; preds = %30
  br label %143

34:                                               ; preds = %30
  store i8 1, ptr %4, align 1
  br label %134

35:                                               ; preds = %22
  %36 = load ptr, ptr @local_job_str, align 8
  %37 = load i32, ptr %7, align 4
  %38 = sext i32 %37 to i64
  %39 = getelementptr inbounds i8, ptr %36, i64 %38
  %40 = load i8, ptr %39, align 1
  %41 = sext i8 %40 to i32
  %42 = icmp eq i32 %41, 95
  br i1 %42, label %43, label %48

43:                                               ; preds = %35
  %44 = load i8, ptr %5, align 1, !range !14, !noundef !15
  %45 = trunc i8 %44 to i1
  br i1 %45, label %46, label %47

46:                                               ; preds = %43
  br label %143

47:                                               ; preds = %43
  store i8 1, ptr %5, align 1
  br label %133

48:                                               ; preds = %35
  %49 = load ptr, ptr @local_job_str, align 8
  %50 = load i32, ptr %7, align 4
  %51 = sext i32 %50 to i64
  %52 = getelementptr inbounds i8, ptr %49, i64 %51
  %53 = load i8, ptr %52, align 1
  %54 = sext i8 %53 to i32
  %55 = icmp eq i32 %54, 91
  br i1 %55, label %56, label %59

56:                                               ; preds = %48
  %57 = load i32, ptr %6, align 4
  %58 = add nsw i32 %57, 1
  store i32 %58, ptr %6, align 4
  br label %132

59:                                               ; preds = %48
  %60 = load ptr, ptr @local_job_str, align 8
  %61 = load i32, ptr %7, align 4
  %62 = sext i32 %61 to i64
  %63 = getelementptr inbounds i8, ptr %60, i64 %62
  %64 = load i8, ptr %63, align 1
  %65 = sext i8 %64 to i32
  %66 = icmp eq i32 %65, 93
  br i1 %66, label %67, label %70

67:                                               ; preds = %59
  %68 = load i32, ptr %6, align 4
  %69 = add nsw i32 %68, -1
  store i32 %69, ptr %6, align 4
  br label %131

70:                                               ; preds = %59
  %71 = load ptr, ptr @local_job_str, align 8
  %72 = load i32, ptr %7, align 4
  %73 = sext i32 %72 to i64
  %74 = getelementptr inbounds i8, ptr %71, i64 %73
  %75 = load i8, ptr %74, align 1
  %76 = sext i8 %75 to i32
  %77 = icmp eq i32 %76, 45
  br i1 %77, label %78, label %86

78:                                               ; preds = %70
  %79 = load i32, ptr %6, align 4
  %80 = icmp eq i32 %79, 0
  br i1 %80, label %81, label %85

81:                                               ; preds = %78
  %82 = load i8, ptr %5, align 1, !range !14, !noundef !15
  %83 = trunc i8 %82 to i1
  br i1 %83, label %85, label %84

84:                                               ; preds = %81
  br label %143

85:                                               ; preds = %81, %78
  br label %130

86:                                               ; preds = %70
  %87 = load ptr, ptr @local_job_str, align 8
  %88 = load i32, ptr %7, align 4
  %89 = sext i32 %88 to i64
  %90 = getelementptr inbounds i8, ptr %87, i64 %89
  %91 = load i8, ptr %90, align 1
  %92 = sext i8 %91 to i32
  %93 = icmp eq i32 %92, 44
  br i1 %93, label %102, label %94

94:                                               ; preds = %86
  %95 = load ptr, ptr @local_job_str, align 8
  %96 = load i32, ptr %7, align 4
  %97 = sext i32 %96 to i64
  %98 = getelementptr inbounds i8, ptr %95, i64 %97
  %99 = load i8, ptr %98, align 1
  %100 = sext i8 %99 to i32
  %101 = icmp eq i32 %100, 32
  br i1 %101, label %102, label %111

102:                                              ; preds = %94, %86
  %103 = load i32, ptr %6, align 4
  %104 = icmp eq i32 %103, 0
  br i1 %104, label %105, label %110

105:                                              ; preds = %102
  %106 = load ptr, ptr @local_job_str, align 8
  %107 = load i32, ptr %7, align 4
  %108 = sext i32 %107 to i64
  %109 = getelementptr inbounds i8, ptr %106, i64 %108
  store i8 94, ptr %109, align 1
  store i8 0, ptr %4, align 1
  store i8 0, ptr %5, align 1
  br label %110

110:                                              ; preds = %105, %102
  br label %129

111:                                              ; preds = %94
  %112 = load ptr, ptr @local_job_str, align 8
  %113 = load i32, ptr %7, align 4
  %114 = sext i32 %113 to i64
  %115 = getelementptr inbounds i8, ptr %112, i64 %114
  %116 = load i8, ptr %115, align 1
  %117 = sext i8 %116 to i32
  %118 = icmp slt i32 %117, 48
  br i1 %118, label %127, label %119

119:                                              ; preds = %111
  %120 = load ptr, ptr @local_job_str, align 8
  %121 = load i32, ptr %7, align 4
  %122 = sext i32 %121 to i64
  %123 = getelementptr inbounds i8, ptr %120, i64 %122
  %124 = load i8, ptr %123, align 1
  %125 = sext i8 %124 to i32
  %126 = icmp sgt i32 %125, 57
  br i1 %126, label %127, label %128

127:                                              ; preds = %119, %111
  br label %143

128:                                              ; preds = %119
  br label %129

129:                                              ; preds = %128, %110
  br label %130

130:                                              ; preds = %129, %85
  br label %131

131:                                              ; preds = %130, %67
  br label %132

132:                                              ; preds = %131, %56
  br label %133

133:                                              ; preds = %132, %47
  br label %134

134:                                              ; preds = %133, %34
  br label %135

135:                                              ; preds = %134
  %136 = load i32, ptr %7, align 4
  %137 = add nsw i32 %136, 1
  store i32 %137, ptr %7, align 4
  br label %15, !llvm.loop !16

138:                                              ; preds = %15
  %139 = load i32, ptr %6, align 4
  %140 = icmp ne i32 %139, 0
  br i1 %140, label %141, label %142

141:                                              ; preds = %138
  br label %143

142:                                              ; preds = %138
  store i1 true, ptr %2, align 1
  store i32 1, ptr %8, align 4
  br label %156

143:                                              ; preds = %141, %127, %84, %46, %33
  call void @slurm_xfree(ptr noundef @local_job_str)
  br label %144

144:                                              ; preds = %143
  br label %145

145:                                              ; preds = %144
  %146 = call i32 @get_log_level()
  %147 = icmp sge i32 %146, 5
  br i1 %147, label %148, label %151

148:                                              ; preds = %145
  %149 = load i32, ptr %7, align 4
  %150 = load ptr, ptr %3, align 8
  call void (i32, ptr, ...) @log_var(i32 noundef 5, ptr noundef @.str.144, i32 noundef %149, ptr noundef %150)
  br label %151

151:                                              ; preds = %148, %145
  br label %152

152:                                              ; preds = %151
  br label %153

153:                                              ; preds = %152
  br label %154

154:                                              ; preds = %153
  br label %155

155:                                              ; preds = %154
  store i1 false, ptr %2, align 1
  store i32 1, ptr %8, align 4
  br label %156

156:                                              ; preds = %155, %142, %11
  call void @llvm.lifetime.end.p0(i64 4, ptr %7) #8
  call void @llvm.lifetime.end.p0(i64 4, ptr %6) #8
  call void @llvm.lifetime.end.p0(i64 1, ptr %5) #8
  call void @llvm.lifetime.end.p0(i64 1, ptr %4) #8
  %157 = load i1, ptr %2, align 1
  ret i1 %157
}